; Function Attrs: nounwind uwtable
define internal fastcc void @mbim_dissect_aka_auth_info(ptr noundef %0, ptr noundef %1, i32 noundef %2) unnamed_addr #0 {
  %4 = load i32, ptr @hf_mbim_aka_auth_info_res, align 4
  %5 = tail call ptr @proto_tree_add_item(ptr noundef %1, i32 noundef %4, ptr noundef %0, i32 noundef %2, i32 noundef 16, i32 noundef 0) #10
  %6 = add i32 %2, 16
  %7 = load i32, ptr @hf_mbim_aka_auth_info_res_length, align 4
  %8 = tail call ptr @proto_tree_add_item(ptr noundef %1, i32 noundef %7, ptr noundef %0, i32 noundef %6, i32 noundef 4, i32 noundef -2147483648) #10
  %9 = add i32 %2, 20
  %10 = load i32, ptr @hf_mbim_aka_auth_info_ik, align 4
  %11 = tail call ptr @proto_tree_add_item(ptr noundef %1, i32 noundef %10, ptr noundef %0, i32 noundef %9, i32 noundef 16, i32 noundef 0) #10
  %12 = add i32 %2, 36
  %13 = load i32, ptr @hf_mbim_aka_auth_info_ck, align 4
  %14 = tail call ptr @proto_tree_add_item(ptr noundef %1, i32 noundef %13, ptr noundef %0, i32 noundef %12, i32 noundef 16, i32 noundef 0) #10
  %15 = add i32 %2, 52
  %16 = load i32, ptr @hf_mbim_aka_auth_info_auts, align 4
  %17 = tail call ptr @proto_tree_add_item(ptr noundef %1, i32 noundef %16, ptr noundef %0, i32 noundef %15, i32 noundef 14, i32 noundef 0) #10
  ret void
}